target datalayout = "e-m:e-p270:32:32-p271:32:32-p272:64:64-i64:64-i128:128-f80:128-n8:16:32:64-S128"
target triple = "x86_64-pc-linux-gnu"

%"struct.std::_List_iterator" = type { ptr }
%"class.base::BasicStringPiece" = type { ptr, i64 }
%"class.net::SpdyHeaderBlock::StringPieceProxy" = type <{ ptr, ptr, %"struct.std::_List_iterator", %"class.base::BasicStringPiece", i8, [7 x i8] }>
%class.linked_hash_map = type { %"class.std::unordered_map", %"class.std::__cxx11::list" }
%"class.std::unordered_map" = type { %"class.std::_Hashtable" }
%"class.std::_Hashtable" = type { ptr, i64, %"struct.std::__detail::_Hash_node_base", i64, %"struct.std::__detail::_Prime_rehash_policy", ptr }
%"struct.std::__detail::_Hash_node_base" = type { ptr }
%"struct.std::__detail::_Prime_rehash_policy" = type { float, i64 }
%"class.std::__cxx11::list" = type { %"class.std::__cxx11::_List_base" }
%"class.std::__cxx11::_List_base" = type { %"struct.std::__cxx11::_List_base<std::pair<base::BasicStringPiece<std::string>, base::BasicStringPiece<std::string>>, std::allocator<std::pair<base::BasicStringPiece<std::string>, base::BasicStringPiece<std::string>>>>::_List_impl" }
%"struct.std::__cxx11::_List_base<std::pair<base::BasicStringPiece<std::string>, base::BasicStringPiece<std::string>>, std::allocator<std::pair<base::BasicStringPiece<std::string>, base::BasicStringPiece<std::string>>>>::_List_impl" = type { %"struct.std::__detail::_List_node_header" }
%"struct.std::__detail::_List_node_header" = type { %"struct.std::__detail::_List_node_base", i64 }
%"struct.std::__detail::_List_node_base" = type { ptr, ptr }
%"class.net::SpdyHeaderBlock::Storage" = type { %"class.net::UnsafeArena" }
%"class.net::UnsafeArena" = type { i64, %"class.std::vector" }
%"class.std::vector" = type { %"struct.std::_Vector_base" }
%"struct.std::_Vector_base" = type { %"struct.std::_Vector_base<net::UnsafeArena::Block, std::allocator<net::UnsafeArena::Block>>::_Vector_impl" }
%"struct.std::_Vector_base<net::UnsafeArena::Block, std::allocator<net::UnsafeArena::Block>>::_Vector_impl" = type { %"struct.std::_Vector_base<net::UnsafeArena::Block, std::allocator<net::UnsafeArena::Block>>::_Vector_impl_data" }
%"struct.std::_Vector_base<net::UnsafeArena::Block, std::allocator<net::UnsafeArena::Block>>::_Vector_impl_data" = type { ptr, ptr, ptr }
%"struct.std::pair" = type <{ %"struct.std::_List_iterator", i8, [7 x i8] }>
%"struct.std::pair.8" = type { %"class.base::BasicStringPiece", %"class.base::BasicStringPiece" }
%"struct.std::_List_node" = type { %"struct.std::__detail::_List_node_base", %"struct.__gnu_cxx::__aligned_membuf" }
%"struct.__gnu_cxx::__aligned_membuf" = type { [32 x i8] }

; Function Attrs: mustprogress nounwind uwtable
define linkonce_odr noundef ptr @_ZN9__gnu_cxx16__aligned_membufISt4pairIN4base16BasicStringPieceINSt7__cxx1112basic_stringIcSt11char_traitsIcESaIcEEEEESA_EE7_M_addrEv(ptr noundef nonnull align 8 dereferenceable(32) %0) #0 comdat align 2 {
  %2 = alloca ptr, align 8
  store ptr %0, ptr %2, align 8, !tbaa !102
  %3 = load ptr, ptr %2, align 8
  %4 = getelementptr inbounds nuw %"struct.__gnu_cxx::__aligned_membuf", ptr %3, i32 0, i32 0
  ret ptr %4
}

; Function Attrs: mustprogress nounwind uwtable
define linkonce_odr noundef ptr @_ZN9__gnu_cxx16__aligned_membufISt4pairIN4base16BasicStringPieceINSt7__cxx1112basic_stringIcSt11char_traitsIcESaIcEEEEESA_EE6_M_ptrEv(ptr noundef nonnull align 8 dereferenceable(32) %0) #0 comdat align 2 {
  %2 = alloca ptr, align 8
  store ptr %0, ptr %2, align 8, !tbaa !102
  %3 = load ptr, ptr %2, align 8
  %4 = call noundef ptr @_ZN9__gnu_cxx16__aligned_membufISt4pairIN4base16BasicStringPieceINSt7__cxx1112basic_stringIcSt11char_traitsIcESaIcEEEEESA_EE7_M_addrEv(ptr noundef nonnull align 8 dereferenceable(32) %3) #17
  ret ptr %4
}

; Function Attrs: mustprogress nounwind uwtable
define linkonce_odr void @_ZNSt14_List_iteratorISt4pairIN4base16BasicStringPieceINSt7__cxx1112basic_stringIcSt11char_traitsIcESaIcEEEEES9_EEC2EPNSt8__detail15_List_node_baseE(ptr noundef nonnull align 8 dereferenceable(8) %0, ptr noundef %1) unnamed_addr #0 comdat align 2 {
  %3 = alloca ptr, align 8
  %4 = alloca ptr, align 8
  store ptr %0, ptr %3, align 8, !tbaa !29
  store ptr %1, ptr %4, align 8, !tbaa !22
  %5 = load ptr, ptr %3, align 8
  %6 = getelementptr inbounds nuw %"struct.std::_List_iterator", ptr %5, i32 0, i32 0
  %7 = load ptr, ptr %4, align 8, !tbaa !22
  store ptr %7, ptr %6, align 8, !tbaa !31
  ret void
}

; Function Attrs: mustprogress nounwind uwtable
define linkonce_odr noundef ptr @_ZNSt10_List_nodeISt4pairIN4base16BasicStringPieceINSt7__cxx1112basic_stringIcSt11char_traitsIcESaIcEEEEES9_EE9_M_valptrEv(ptr noundef nonnull align 8 dereferenceable(48) %0) #0 comdat align 2 {
  %2 = alloca ptr, align 8
  store ptr %0, ptr %2, align 8, !tbaa !95
  %3 = load ptr, ptr %2, align 8
  %4 = getelementptr inbounds nuw %"struct.std::_List_node", ptr %3, i32 0, i32 1
  %5 = call noundef ptr @_ZN9__gnu_cxx16__aligned_membufISt4pairIN4base16BasicStringPieceINSt7__cxx1112basic_stringIcSt11char_traitsIcESaIcEEEEESA_EE6_M_ptrEv(ptr noundef nonnull align 8 dereferenceable(32) %4) #17
  ret ptr %5
}

; Function Attrs: mustprogress nounwind uwtable
define linkonce_odr void @_ZNSt4pairIN4base16BasicStringPieceINSt7__cxx1112basic_stringIcSt11char_traitsIcESaIcEEEEES8_EC2IRS8_S8_TnNSt9enable_ifIXaaclsr5_PCCPE22_MoveConstructiblePairIT_T0_EEclsr5_PCCPE30_ImplicitlyMoveConvertiblePairISD_SE_EEEbE4typeELb1EEEOSD_OSE_(ptr noundef nonnull align 8 dereferenceable(32) %0, ptr noundef nonnull align 8 dereferenceable(16) %1, ptr noundef nonnull align 8 dereferenceable(16) %2) unnamed_addr #0 comdat align 2 {
  %4 = alloca ptr, align 8
  %5 = alloca ptr, align 8
  %6 = alloca ptr, align 8
  store ptr %0, ptr %4, align 8, !tbaa !32
  store ptr %1, ptr %5, align 8, !tbaa !40
  store ptr %2, ptr %6, align 8, !tbaa !40
  %7 = load ptr, ptr %4, align 8
  %8 = getelementptr inbounds nuw %"struct.std::pair.8", ptr %7, i32 0, i32 0
  %9 = load ptr, ptr %5, align 8, !tbaa !40
  call void @llvm.memcpy.p0.p0.i64(ptr align 8 %8, ptr align 8 %9, i64 16, i1 false), !tbaa.struct !23
  %10 = getelementptr inbounds nuw %"struct.std::pair.8", ptr %7, i32 0, i32 1
  %11 = load ptr, ptr %6, align 8, !tbaa !40
  call void @llvm.memcpy.p0.p0.i64(ptr align 8 %10, ptr align 8 %11, i64 16, i1 false), !tbaa.struct !23
  ret void
}

; Function Attrs: mustprogress nounwind uwtable
define available_externally void @_ZN4base16BasicStringPieceINSt7__cxx1112basic_stringIcSt11char_traitsIcESaIcEEEEC2EPKcm(ptr noundef nonnull align 8 dereferenceable(16) %0, ptr noundef %1, i64 noundef %2) unnamed_addr #0 align 2 {
  %4 = alloca ptr, align 8
  %5 = alloca ptr, align 8
  %6 = alloca i64, align 8
  store ptr %0, ptr %4, align 8, !tbaa !40
  store ptr %1, ptr %5, align 8, !tbaa !24
  store i64 %2, ptr %6, align 8, !tbaa !25
  %7 = load ptr, ptr %4, align 8
  %8 = getelementptr inbounds nuw %"class.base::BasicStringPiece", ptr %7, i32 0, i32 0
  %9 = load ptr, ptr %5, align 8, !tbaa !24
  store ptr %9, ptr %8, align 8, !tbaa !42
  %10 = getelementptr inbounds nuw %"class.base::BasicStringPiece", ptr %7, i32 0, i32 1
  %11 = load i64, ptr %6, align 8, !tbaa !25
  store i64 %11, ptr %10, align 8, !tbaa !43
  ret void
}

; Function Attrs: mustprogress nounwind uwtable
define available_externally noundef i64 @_ZNK4base16BasicStringPieceINSt7__cxx1112basic_stringIcSt11char_traitsIcESaIcEEEE4sizeEv(ptr noundef nonnull align 8 dereferenceable(16) %0) #0 align 2 {
  %2 = alloca ptr, align 8
  store ptr %0, ptr %2, align 8, !tbaa !40
  %3 = load ptr, ptr %2, align 8
  %4 = getelementptr inbounds nuw %"class.base::BasicStringPiece", ptr %3, i32 0, i32 1
  %5 = load i64, ptr %4, align 8, !tbaa !43
  ret i64 %5
}

; Function Attrs: mustprogress nounwind uwtable
define available_externally noundef ptr @_ZNK4base16BasicStringPieceINSt7__cxx1112basic_stringIcSt11char_traitsIcESaIcEEEE4dataEv(ptr noundef nonnull align 8 dereferenceable(16) %0) #0 align 2 {
  %2 = alloca ptr, align 8
  store ptr %0, ptr %2, align 8, !tbaa !40
  %3 = load ptr, ptr %2, align 8
  %4 = getelementptr inbounds nuw %"class.base::BasicStringPiece", ptr %3, i32 0, i32 0
  %5 = load ptr, ptr %4, align 8, !tbaa !42
  ret ptr %5
}

; Function Attrs: mustprogress nounwind uwtable
define linkonce_odr ptr @_ZNSt7__cxx114listISt4pairIN4base16BasicStringPieceINS_12basic_stringIcSt11char_traitsIcESaIcEEEEES9_ESaISA_EE3endEv(ptr noundef nonnull align 8 dereferenceable(24) %0) #0 comdat align 2 {
  %2 = alloca %"struct.std::_List_iterator", align 8
  %3 = alloca ptr, align 8
  store ptr %0, ptr %3, align 8, !tbaa !138
  %4 = load ptr, ptr %3, align 8
  %5 = getelementptr inbounds nuw %"class.std::__cxx11::_List_base", ptr %4, i32 0, i32 0
  %6 = getelementptr inbounds nuw %"struct.std::__cxx11::_List_base<std::pair<base::BasicStringPiece<std::string>, base::BasicStringPiece<std::string>>, std::allocator<std::pair<base::BasicStringPiece<std::string>, base::BasicStringPiece<std::string>>>>::_List_impl", ptr %5, i32 0, i32 0
  call void @_ZNSt14_List_iteratorISt4pairIN4base16BasicStringPieceINSt7__cxx1112basic_stringIcSt11char_traitsIcESaIcEEEEES9_EEC2EPNSt8__detail15_List_node_baseE(ptr noundef nonnull align 8 dereferenceable(8) %2, ptr noundef %6) #17
  %7 = getelementptr inbounds nuw %"struct.std::_List_iterator", ptr %2, i32 0, i32 0
  %8 = load ptr, ptr %7, align 8
  ret ptr %8
}

; Function Attrs: mustprogress nounwind uwtable
define linkonce_odr noundef ptr @_ZNKSt14_List_iteratorISt4pairIN4base16BasicStringPieceINSt7__cxx1112basic_stringIcSt11char_traitsIcESaIcEEEEES9_EEptEv(ptr noundef nonnull align 8 dereferenceable(8) %0) #0 comdat align 2 {
  %2 = alloca ptr, align 8
  store ptr %0, ptr %2, align 8, !tbaa !29
  %3 = load ptr, ptr %2, align 8
  %4 = getelementptr inbounds nuw %"struct.std::_List_iterator", ptr %3, i32 0, i32 0
  %5 = load ptr, ptr %4, align 8, !tbaa !31
  %6 = call noundef ptr @_ZNSt10_List_nodeISt4pairIN4base16BasicStringPieceINSt7__cxx1112basic_stringIcSt11char_traitsIcESaIcEEEEES9_EE9_M_valptrEv(ptr noundef nonnull align 8 dereferenceable(48) %5)
  ret ptr %6
}

; Function Attrs: mustprogress uwtable
define linkonce_odr void @_ZSt9make_pairIRN4base16BasicStringPieceINSt7__cxx1112basic_stringIcSt11char_traitsIcESaIcEEEEES8_ESt4pairINSt25__strip_reference_wrapperINSt5decayIT_E4typeEE6__typeENSB_INSC_IT0_E4typeEE6__typeEEOSD_OSI_(ptr dead_on_unwind noalias writable sret(%"struct.std::pair.8") align 8 %0, ptr noundef nonnull align 8 dereferenceable(16) %1, ptr noundef nonnull align 8 dereferenceable(16) %2) #4 comdat {
  %4 = alloca ptr, align 8
  %5 = alloca ptr, align 8
  store ptr %1, ptr %4, align 8, !tbaa !40
  store ptr %2, ptr %5, align 8, !tbaa !40
  %6 = load ptr, ptr %4, align 8, !tbaa !40
  %7 = load ptr, ptr %5, align 8, !tbaa !40
  call void @_ZNSt4pairIN4base16BasicStringPieceINSt7__cxx1112basic_stringIcSt11char_traitsIcESaIcEEEEES8_EC2IRS8_S8_TnNSt9enable_ifIXaaclsr5_PCCPE22_MoveConstructiblePairIT_T0_EEclsr5_PCCPE30_ImplicitlyMoveConvertiblePairISD_SE_EEEbE4typeELb1EEEOSD_OSE_(ptr noundef nonnull align 8 dereferenceable(32) %0, ptr noundef nonnull align 8 dereferenceable(16) %6, ptr noundef nonnull align 8 dereferenceable(16) %7)
  ret void
}

; Function Attrs: mustprogress uwtable
define linkonce_odr { ptr, i64 } @_ZN3net15SpdyHeaderBlock7Storage5WriteEN4base16BasicStringPieceINSt7__cxx1112basic_stringIcSt11char_traitsIcESaIcEEEEE(ptr noundef nonnull align 8 dereferenceable(32) %0, ptr %1, i64 %2) #4 comdat align 2 {
  %4 = alloca %"class.base::BasicStringPiece", align 8
  %5 = alloca %"class.base::BasicStringPiece", align 8
  %6 = alloca ptr, align 8
  %7 = getelementptr inbounds nuw { ptr, i64 }, ptr %5, i32 0, i32 0
  store ptr %1, ptr %7, align 8
  %8 = getelementptr inbounds nuw { ptr, i64 }, ptr %5, i32 0, i32 1
  store i64 %2, ptr %8, align 8
  store ptr %0, ptr %6, align 8, !tbaa !10
  %9 = load ptr, ptr %6, align 8
  %10 = getelementptr inbounds nuw %"class.net::SpdyHeaderBlock::Storage", ptr %9, i32 0, i32 0
  %11 = call noundef ptr @_ZNK4base16BasicStringPieceINSt7__cxx1112basic_stringIcSt11char_traitsIcESaIcEEEE4dataEv(ptr noundef nonnull align 8 dereferenceable(16) %5)
  %12 = call noundef i64 @_ZNK4base16BasicStringPieceINSt7__cxx1112basic_stringIcSt11char_traitsIcESaIcEEEE4sizeEv(ptr noundef nonnull align 8 dereferenceable(16) %5)
  %13 = call noundef ptr @_ZN3net11UnsafeArena6MemdupEPKcm(ptr noundef nonnull align 8 dereferenceable(32) %10, ptr noundef %11, i64 noundef %12)
  %14 = call noundef i64 @_ZNK4base16BasicStringPieceINSt7__cxx1112basic_stringIcSt11char_traitsIcESaIcEEEE4sizeEv(ptr noundef nonnull align 8 dereferenceable(16) %5)
  call void @_ZN4base16BasicStringPieceINSt7__cxx1112basic_stringIcSt11char_traitsIcESaIcEEEEC2EPKcm(ptr noundef nonnull align 8 dereferenceable(16) %4, ptr noundef %13, i64 noundef %14)
  %15 = load { ptr, i64 }, ptr %4, align 8
  ret { ptr, i64 } %15
}

; Function Attrs: mustprogress nounwind uwtable
define linkonce_odr noundef zeroext i1 @_ZSteqRKSt14_List_iteratorISt4pairIN4base16BasicStringPieceINSt7__cxx1112basic_stringIcSt11char_traitsIcESaIcEEEEES9_EESD_(ptr noundef nonnull align 8 dereferenceable(8) %0, ptr noundef nonnull align 8 dereferenceable(8) %1) #0 comdat {
  %3 = alloca ptr, align 8
  %4 = alloca ptr, align 8
  store ptr %0, ptr %3, align 8, !tbaa !29
  store ptr %1, ptr %4, align 8, !tbaa !29
  %5 = load ptr, ptr %3, align 8, !tbaa !29
  %6 = getelementptr inbounds nuw %"struct.std::_List_iterator", ptr %5, i32 0, i32 0
  %7 = load ptr, ptr %6, align 8, !tbaa !31
  %8 = load ptr, ptr %4, align 8, !tbaa !29
  %9 = getelementptr inbounds nuw %"struct.std::_List_iterator", ptr %8, i32 0, i32 0
  %10 = load ptr, ptr %9, align 8, !tbaa !31
  %11 = icmp eq ptr %7, %10
  ret i1 %11
}

; Function Attrs: mustprogress nounwind uwtable
define linkonce_odr ptr @_ZN15linked_hash_mapIN4base16BasicStringPieceINSt7__cxx1112basic_stringIcSt11char_traitsIcESaIcEEEEES8_NS0_15StringPieceHashEE3endEv(ptr noundef nonnull align 8 dereferenceable(80) %0) #0 comdat align 2 {
  %2 = alloca %"struct.std::_List_iterator", align 8
  %3 = alloca ptr, align 8
  store ptr %0, ptr %3, align 8, !tbaa !8
  %4 = load ptr, ptr %3, align 8
  %5 = getelementptr inbounds nuw %class.linked_hash_map, ptr %4, i32 0, i32 1
  %6 = call ptr @_ZNSt7__cxx114listISt4pairIN4base16BasicStringPieceINS_12basic_stringIcSt11char_traitsIcESaIcEEEEES9_ESaISA_EE3endEv(ptr noundef nonnull align 8 dereferenceable(24) %5) #17
  %7 = getelementptr inbounds nuw %"struct.std::_List_iterator", ptr %2, i32 0, i32 0
  store ptr %6, ptr %7, align 8
  %8 = getelementptr inbounds nuw %"struct.std::_List_iterator", ptr %2, i32 0, i32 0
  %9 = load ptr, ptr %8, align 8
  ret ptr %9
}

; Function Attrs: mustprogress uwtable
define noundef nonnull align 8 dereferenceable(41) ptr @_ZN3net15SpdyHeaderBlock16StringPieceProxyaSEN4base16BasicStringPieceINSt7__cxx1112basic_stringIcSt11char_traitsIcESaIcEEEEE(ptr noundef nonnull align 8 dereferenceable(41) %0, ptr %1, i64 %2) #4 align 2 {
  %4 = alloca %"class.base::BasicStringPiece", align 8
  %5 = alloca ptr, align 8
  %6 = alloca %"struct.std::_List_iterator", align 8
  %7 = alloca %"struct.std::pair", align 8
  %8 = alloca %"struct.std::pair.8", align 8
  %9 = alloca %"class.base::BasicStringPiece", align 8
  %10 = alloca %"class.base::BasicStringPiece", align 8
  %11 = alloca { ptr, i8 }, align 8
  %12 = alloca %"class.base::BasicStringPiece", align 8
  %13 = alloca %"class.base::BasicStringPiece", align 8
  %14 = getelementptr inbounds nuw { ptr, i64 }, ptr %4, i32 0, i32 0
  store ptr %1, ptr %14, align 8
  %15 = getelementptr inbounds nuw { ptr, i64 }, ptr %4, i32 0, i32 1
  store i64 %2, ptr %15, align 8
  store ptr %0, ptr %5, align 8, !tbaa !3
  %16 = load ptr, ptr %5, align 8
  %17 = getelementptr inbounds nuw %"class.net::SpdyHeaderBlock::StringPieceProxy", ptr %16, i32 0, i32 2
  call void @llvm.lifetime.start.p0(i64 8, ptr %6) #17
  %18 = getelementptr inbounds nuw %"class.net::SpdyHeaderBlock::StringPieceProxy", ptr %16, i32 0, i32 0
  %19 = load ptr, ptr %18, align 8, !tbaa !12
  %20 = call ptr @_ZN15linked_hash_mapIN4base16BasicStringPieceINSt7__cxx1112basic_stringIcSt11char_traitsIcESaIcEEEEES8_NS0_15StringPieceHashEE3endEv(ptr noundef nonnull align 8 dereferenceable(80) %19)
  %21 = getelementptr inbounds nuw %"struct.std::_List_iterator", ptr %6, i32 0, i32 0
  store ptr %20, ptr %21, align 8
  %22 = call noundef zeroext i1 @_ZSteqRKSt14_List_iteratorISt4pairIN4base16BasicStringPieceINSt7__cxx1112basic_stringIcSt11char_traitsIcESaIcEEEEES9_EESD_(ptr noundef nonnull align 8 dereferenceable(8) %17, ptr noundef nonnull align 8 dereferenceable(8) %6) #17
  call void @llvm.lifetime.end.p0(i64 8, ptr %6) #17
  br i1 %22, label %23, label %41

23:                                               ; preds = %3
  call void @llvm.lifetime.start.p0(i64 16, ptr %7) #17
  %24 = getelementptr inbounds nuw %"class.net::SpdyHeaderBlock::StringPieceProxy", ptr %16, i32 0, i32 0
  %25 = load ptr, ptr %24, align 8, !tbaa !12
  call void @llvm.lifetime.start.p0(i64 32, ptr %8) #17
  %26 = getelementptr inbounds nuw %"class.net::SpdyHeaderBlock::StringPieceProxy", ptr %16, i32 0, i32 3
  call void @llvm.lifetime.start.p0(i64 16, ptr %9) #17
  %27 = getelementptr inbounds nuw %"class.net::SpdyHeaderBlock::StringPieceProxy", ptr %16, i32 0, i32 1
  %28 = load ptr, ptr %27, align 8, !tbaa !20
  call void @llvm.memcpy.p0.p0.i64(ptr align 8 %10, ptr align 8 %4, i64 16, i1 false), !tbaa.struct !23
  %29 = getelementptr inbounds nuw { ptr, i64 }, ptr %10, i32 0, i32 0
  %30 = load ptr, ptr %29, align 8
  %31 = getelementptr inbounds nuw { ptr, i64 }, ptr %10, i32 0, i32 1
  %32 = load i64, ptr %31, align 8
  %33 = call { ptr, i64 } @_ZN3net15SpdyHeaderBlock7Storage5WriteEN4base16BasicStringPieceINSt7__cxx1112basic_stringIcSt11char_traitsIcESaIcEEEEE(ptr noundef nonnull align 8 dereferenceable(32) %28, ptr %30, i64 %32)
  %34 = getelementptr inbounds nuw { ptr, i64 }, ptr %9, i32 0, i32 0
  %35 = extractvalue { ptr, i64 } %33, 0
  store ptr %35, ptr %34, align 8
  %36 = getelementptr inbounds nuw { ptr, i64 }, ptr %9, i32 0, i32 1
  %37 = extractvalue { ptr, i64 } %33, 1
  store i64 %37, ptr %36, align 8
  call void @_ZSt9make_pairIRN4base16BasicStringPieceINSt7__cxx1112basic_stringIcSt11char_traitsIcESaIcEEEEES8_ESt4pairINSt25__strip_reference_wrapperINSt5decayIT_E4typeEE6__typeENSB_INSC_IT0_E4typeEE6__typeEEOSD_OSI_(ptr dead_on_unwind writable sret(%"struct.std::pair.8") align 8 %8, ptr noundef nonnull align 8 dereferenceable(16) %26, ptr noundef nonnull align 8 dereferenceable(16) %9)
  %38 = call { ptr, i8 } @_ZN15linked_hash_mapIN4base16BasicStringPieceINSt7__cxx1112basic_stringIcSt11char_traitsIcESaIcEEEEES8_NS0_15StringPieceHashEE6insertERKSt4pairIS8_S8_E(ptr noundef nonnull align 8 dereferenceable(80) %25, ptr noundef nonnull align 8 dereferenceable(32) %8)
  store { ptr, i8 } %38, ptr %11, align 8
  call void @llvm.memcpy.p0.p0.i64(ptr align 8 %7, ptr align 8 %11, i64 9, i1 false)
  %39 = getelementptr inbounds nuw %"struct.std::pair", ptr %7, i32 0, i32 0
  %40 = getelementptr inbounds nuw %"class.net::SpdyHeaderBlock::StringPieceProxy", ptr %16, i32 0, i32 2
  call void @llvm.memcpy.p0.p0.i64(ptr align 8 %40, ptr align 8 %39, i64 8, i1 false), !tbaa.struct !21
  call void @llvm.lifetime.end.p0(i64 16, ptr %9) #17
  call void @llvm.lifetime.end.p0(i64 32, ptr %8) #17
  call void @llvm.lifetime.end.p0(i64 16, ptr %7) #17
  br label %56

41:                                               ; preds = %3
  call void @llvm.lifetime.start.p0(i64 16, ptr %12) #17
  %42 = getelementptr inbounds nuw %"class.net::SpdyHeaderBlock::StringPieceProxy", ptr %16, i32 0, i32 1
  %43 = load ptr, ptr %42, align 8, !tbaa !20
  call void @llvm.memcpy.p0.p0.i64(ptr align 8 %13, ptr align 8 %4, i64 16, i1 false), !tbaa.struct !23
  %44 = getelementptr inbounds nuw { ptr, i64 }, ptr %13, i32 0, i32 0
  %45 = load ptr, ptr %44, align 8
  %46 = getelementptr inbounds nuw { ptr, i64 }, ptr %13, i32 0, i32 1
  %47 = load i64, ptr %46, align 8
  %48 = call { ptr, i64 } @_ZN3net15SpdyHeaderBlock7Storage5WriteEN4base16BasicStringPieceINSt7__cxx1112basic_stringIcSt11char_traitsIcESaIcEEEEE(ptr noundef nonnull align 8 dereferenceable(32) %43, ptr %45, i64 %47)
  %49 = getelementptr inbounds nuw { ptr, i64 }, ptr %12, i32 0, i32 0
  %50 = extractvalue { ptr, i64 } %48, 0
  store ptr %50, ptr %49, align 8
  %51 = getelementptr inbounds nuw { ptr, i64 }, ptr %12, i32 0, i32 1
  %52 = extractvalue { ptr, i64 } %48, 1
  store i64 %52, ptr %51, align 8
  %53 = getelementptr inbounds nuw %"class.net::SpdyHeaderBlock::StringPieceProxy", ptr %16, i32 0, i32 2
  %54 = call noundef ptr @_ZNKSt14_List_iteratorISt4pairIN4base16BasicStringPieceINSt7__cxx1112basic_stringIcSt11char_traitsIcESaIcEEEEES9_EEptEv(ptr noundef nonnull align 8 dereferenceable(8) %53) #17
  %55 = getelementptr inbounds nuw %"struct.std::pair.8", ptr %54, i32 0, i32 1
  call void @llvm.memcpy.p0.p0.i64(ptr align 8 %55, ptr align 8 %12, i64 16, i1 false), !tbaa.struct !23
  call void @llvm.lifetime.end.p0(i64 16, ptr %12) #17
  br label %56

56:                                               ; preds = %41, %23
  ret ptr %16
}