; Function Attrs: mustprogress uwtable
define noundef nonnull align 8 dereferenceable(41) ptr @_ZN3net15SpdyHeaderBlock16StringPieceProxyaSEN4base16BasicStringPieceINSt7__cxx1112basic_stringIcSt11char_traitsIcESaIcEEEEE(ptr noundef nonnull returned align 8 captures(ret: address, provenance) dereferenceable(41) %0, ptr %1, i64 %2) local_unnamed_addr #7 align 2 {
  %4 = alloca %"struct.std::pair.8", align 8
  %5 = getelementptr inbounds nuw i8, ptr %0, i64 16
  %6 = load ptr, ptr %0, align 8, !tbaa !3
  %7 = getelementptr inbounds nuw i8, ptr %6, i64 56
  %8 = load ptr, ptr %5, align 8, !tbaa !24
  %9 = icmp eq ptr %8, %7
  br i1 %9, label %10, label %17

10:                                               ; preds = %3
  call void @llvm.lifetime.start.p0(i64 32, ptr nonnull %4) #19
  %11 = getelementptr inbounds nuw i8, ptr %0, i64 24
  %12 = getelementptr inbounds nuw i8, ptr %0, i64 8
  %13 = load ptr, ptr %12, align 8, !tbaa !16
  %14 = tail call noundef ptr @_ZN3net11UnsafeArena6MemdupEPKcm(ptr noundef nonnull align 8 dereferenceable(32) %13, ptr noundef %1, i64 noundef %2)
  call void @llvm.memcpy.p0.p0.i64(ptr noundef nonnull align 8 dereferenceable(32) %4, ptr noundef nonnull align 8 dereferenceable(16) %11, i64 16, i1 false), !tbaa.struct !21
  %15 = getelementptr inbounds nuw i8, ptr %4, i64 16
  store ptr %14, ptr %15, align 8, !tbaa !18
  %.sroa.4.0..sroa_idx12 = getelementptr inbounds nuw i8, ptr %4, i64 24
  store i64 %2, ptr %.sroa.4.0..sroa_idx12, align 8, !tbaa !19
  %16 = call { ptr, i8 } @_ZN15linked_hash_mapIN4base16BasicStringPieceINSt7__cxx1112basic_stringIcSt11char_traitsIcESaIcEEEEES8_NS0_15StringPieceHashEE6insertERKSt4pairIS8_S8_E(ptr noundef nonnull align 8 dereferenceable(80) %6, ptr noundef nonnull align 8 dereferenceable(32) %4)
  %.fca.0.extract = extractvalue { ptr, i8 } %16, 0
  store ptr %.fca.0.extract, ptr %5, align 8, !tbaa !17
  call void @llvm.lifetime.end.p0(i64 32, ptr nonnull %4) #19
  br label %23

17:                                               ; preds = %3
  %18 = getelementptr inbounds nuw i8, ptr %0, i64 8
  %19 = load ptr, ptr %18, align 8, !tbaa !16
  %20 = tail call noundef ptr @_ZN3net11UnsafeArena6MemdupEPKcm(ptr noundef nonnull align 8 dereferenceable(32) %19, ptr noundef %1, i64 noundef %2)
  %21 = load ptr, ptr %5, align 8, !tbaa !24
  %22 = getelementptr inbounds nuw i8, ptr %21, i64 32
  store ptr %20, ptr %22, align 8, !tbaa !18
  %.sroa.4.0..sroa_idx = getelementptr inbounds nuw i8, ptr %21, i64 40
  store i64 %2, ptr %.sroa.4.0..sroa_idx, align 8, !tbaa !19
  br label %23

23:                                               ; preds = %17, %10
  ret ptr %0
}